; Function Attrs: mustprogress uwtable
define void @_ZN11floatbufferC2Ev(ptr noundef nonnull align 8 dereferenceable(32) %0) unnamed_addr #9 align 2 personality ptr @__gxx_personality_v0 {
  %2 = alloca %class.QString, align 8
  %3 = getelementptr inbounds i8, ptr %0, i64 24
  store ptr @_ZN10QArrayData11shared_nullE, ptr %3, align 8
  store ptr null, ptr %0, align 8
  %4 = getelementptr inbounds i8, ptr %0, i64 16
  store i32 -1, ptr %4, align 8
  call void @llvm.lifetime.start.p0(i64 8, ptr nonnull %2)
  invoke void @_ZN7QString15fromUtf8_helperEPKci(ptr dead_on_unwind nonnull writable sret(%class.QString) align 8 %2, ptr noundef nonnull @.str.6, i32 noundef 4)
          to label %.noexc unwind label %13

.noexc:                                           ; preds = %1
  %5 = load ptr, ptr %3, align 8
  %6 = load ptr, ptr %2, align 8
  store ptr %6, ptr %3, align 8
  store ptr %5, ptr %2, align 8
  %7 = load atomic i32, ptr %5 monotonic, align 4
  switch i32 %7, label %_ZN9QtPrivate8RefCount5derefEv.exit.i.i [
    i32 0, label %_ZN9QtPrivate8RefCount5derefEv.exit.thread2.i.i
    i32 -1, label %10
  ]

_ZN9QtPrivate8RefCount5derefEv.exit.i.i:          ; preds = %.noexc
  %8 = atomicrmw sub ptr %5, i32 1 seq_cst, align 4
  %.not.i.i = icmp eq i32 %8, 1
  br i1 %.not.i.i, label %_ZN9QtPrivate8RefCount5derefEv.exit._ZN9QtPrivate8RefCount5derefEv.exit.thread2_crit_edge.i.i, label %10

_ZN9QtPrivate8RefCount5derefEv.exit._ZN9QtPrivate8RefCount5derefEv.exit.thread2_crit_edge.i.i: ; preds = %_ZN9QtPrivate8RefCount5derefEv.exit.i.i
  %.pre.i.i = load ptr, ptr %2, align 8
  br label %_ZN9QtPrivate8RefCount5derefEv.exit.thread2.i.i

_ZN9QtPrivate8RefCount5derefEv.exit.thread2.i.i:  ; preds = %_ZN9QtPrivate8RefCount5derefEv.exit._ZN9QtPrivate8RefCount5derefEv.exit.thread2_crit_edge.i.i, %.noexc
  %9 = phi ptr [ %.pre.i.i, %_ZN9QtPrivate8RefCount5derefEv.exit._ZN9QtPrivate8RefCount5derefEv.exit.thread2_crit_edge.i.i ], [ %5, %.noexc ]
  call void @_ZN10QArrayData10deallocateEPS_mm(ptr noundef %9, i64 noundef 2, i64 noundef 8) #31
  br label %10

10:                                               ; preds = %_ZN9QtPrivate8RefCount5derefEv.exit.thread2.i.i, %_ZN9QtPrivate8RefCount5derefEv.exit.i.i, %.noexc
  call void @llvm.lifetime.end.p0(i64 8, ptr nonnull %2)
  %11 = getelementptr inbounds i8, ptr %0, i64 8
  store i32 0, ptr %11, align 8
  %12 = getelementptr inbounds i8, ptr %0, i64 12
  store i32 0, ptr %12, align 4
  ret void

13:                                               ; preds = %1
  %14 = landingpad { ptr, i32 }
          cleanup
  call void @_ZN7QStringD2Ev(ptr noundef nonnull align 8 dereferenceable(8) %3) #31
  resume { ptr, i32 } %14
}